target datalayout = "e-m:e-p270:32:32-p271:32:32-p272:64:64-i64:64-i128:128-f80:128-n8:16:32:64-S128"
target triple = "x86_64-pc-linux-gnu"

%struct.AVFilterContext = type { ptr, ptr, ptr, ptr, ptr, i32, ptr, ptr, i32, ptr, ptr, i32, i32, ptr, ptr, ptr, ptr, i32, ptr, i32, i32 }
%struct.FFFilterContext = type { %struct.AVFilterContext, ptr, i32, i32, ptr, ptr, ptr }
%struct.FilterLinkInternal = type { %struct.FilterLink, ptr, %struct.FFFrameQueue, i32, i32, i64, i32, i32, i32, i32 }
%struct.FilterLink = type { %struct.AVFilterLink, ptr, i64, i64, i32, i32, i64, i64, i64, i64, %struct.AVRational, ptr }
%struct.AVFilterLink = type { ptr, ptr, ptr, ptr, i32, i32, i32, i32, %struct.AVRational, i32, i32, i32, %struct.AVChannelLayout, %struct.AVRational, ptr, i32, %struct.AVFilterFormatsConfig, %struct.AVFilterFormatsConfig }
%struct.AVChannelLayout = type { i32, i32, %union.anon.0, ptr }
%union.anon.0 = type { i64 }
%struct.AVFilterFormatsConfig = type { ptr, ptr, ptr, ptr, ptr }
%struct.AVRational = type { i32, i32 }
%struct.FFFrameQueue = type { ptr, i64, i64, i64, %struct.FFFrameBucket, i64, i64, i64, i64, i32 }
%struct.FFFrameBucket = type { ptr }
%struct.AVFrame = type { [8 x ptr], [8 x i32], ptr, i32, i32, i32, i32, i32, %struct.AVRational, i64, i64, %struct.AVRational, i32, ptr, i32, i32, [8 x ptr], ptr, i32, ptr, i32, i32, i32, i32, i32, i32, i32, i64, ptr, i32, ptr, ptr, i64, i64, i64, i64, ptr, %struct.AVChannelLayout, i64 }

; Function Attrs: inlinehint nounwind uwtable
define internal double @av_q2d(i64 %0) #4 {
  %2 = alloca %struct.AVRational, align 4
  store i64 %0, ptr %2, align 4
  %3 = getelementptr inbounds nuw %struct.AVRational, ptr %2, i32 0, i32 0
  %4 = load i32, ptr %3, align 4, !tbaa !101
  %5 = sitofp i32 %4 to double
  %6 = getelementptr inbounds nuw %struct.AVRational, ptr %2, i32 0, i32 1
  %7 = load i32, ptr %6, align 4, !tbaa !102
  %8 = sitofp i32 %7 to double
  %9 = fdiv nsz double %5, %8
  ret double %9
}

; Function Attrs: inlinehint nounwind uwtable
define internal ptr @fffilterctx(ptr noundef %0) #4 {
  %2 = alloca ptr, align 8
  store ptr %0, ptr %2, align 8, !tbaa !4
  %3 = load ptr, ptr %2, align 8, !tbaa !4
  ret ptr %3
}

; Function Attrs: inlinehint nounwind uwtable
define internal ptr @ff_filter_link(ptr noundef %0) #4 {
  %2 = alloca ptr, align 8
  store ptr %0, ptr %2, align 8, !tbaa !26
  %3 = load ptr, ptr %2, align 8, !tbaa !26
  ret ptr %3
}

; Function Attrs: nounwind uwtable
define internal i32 @evaluate_timeline_at_frame(ptr noundef %0, ptr noundef %1) #0 {
  %3 = alloca i32, align 4
  %4 = alloca ptr, align 8
  %5 = alloca ptr, align 8
  %6 = alloca ptr, align 8
  %7 = alloca ptr, align 8
  %8 = alloca ptr, align 8
  %9 = alloca i64, align 8
  %10 = alloca i32, align 4
  store ptr %0, ptr %4, align 8, !tbaa !26
  store ptr %1, ptr %5, align 8, !tbaa !183
  call void @llvm.lifetime.start.p0(i64 8, ptr %6) #11
  %11 = load ptr, ptr %4, align 8, !tbaa !26
  %12 = call ptr @ff_filter_link(ptr noundef %11)
  store ptr %12, ptr %6, align 8, !tbaa !114
  call void @llvm.lifetime.start.p0(i64 8, ptr %7) #11
  %13 = load ptr, ptr %4, align 8, !tbaa !26
  %14 = getelementptr inbounds nuw %struct.AVFilterLink, ptr %13, i32 0, i32 2
  %15 = load ptr, ptr %14, align 8, !tbaa !57
  store ptr %15, ptr %7, align 8, !tbaa !4
  call void @llvm.lifetime.start.p0(i64 8, ptr %8) #11
  %16 = load ptr, ptr %7, align 8, !tbaa !4
  %17 = call ptr @fffilterctx(ptr noundef %16)
  store ptr %17, ptr %8, align 8, !tbaa !74
  call void @llvm.lifetime.start.p0(i64 8, ptr %9) #11
  %18 = load ptr, ptr %5, align 8, !tbaa !183
  %19 = getelementptr inbounds nuw %struct.AVFrame, ptr %18, i32 0, i32 9
  %20 = load i64, ptr %19, align 8, !tbaa !208
  store i64 %20, ptr %9, align 8, !tbaa !77
  %21 = load ptr, ptr %7, align 8, !tbaa !4
  %22 = getelementptr inbounds nuw %struct.AVFilterContext, ptr %21, i32 0, i32 14
  %23 = load ptr, ptr %22, align 8, !tbaa !132
  %24 = icmp ne ptr %23, null
  br i1 %24, label %26, label %25

25:                                               ; preds = %2
  store i32 1, ptr %3, align 4
  store i32 1, ptr %10, align 4
  br label %78

26:                                               ; preds = %2
  %27 = load ptr, ptr %6, align 8, !tbaa !114
  %28 = getelementptr inbounds nuw %struct.FilterLink, ptr %27, i32 0, i32 7
  %29 = load i64, ptr %28, align 8, !tbaa !237
  %30 = sitofp i64 %29 to double
  %31 = load ptr, ptr %8, align 8, !tbaa !74
  %32 = getelementptr inbounds nuw %struct.FFFilterContext, ptr %31, i32 0, i32 5
  %33 = load ptr, ptr %32, align 8, !tbaa !130
  %34 = getelementptr inbounds double, ptr %33, i64 1
  store double %30, ptr %34, align 8, !tbaa !238
  %35 = load i64, ptr %9, align 8, !tbaa !77
  %36 = icmp eq i64 %35, -9223372036854775808
  br i1 %36, label %37, label %38

37:                                               ; preds = %26
  br label %46

38:                                               ; preds = %26
  %39 = load i64, ptr %9, align 8, !tbaa !77
  %40 = sitofp i64 %39 to double
  %41 = load ptr, ptr %4, align 8, !tbaa !26
  %42 = getelementptr inbounds nuw %struct.AVFilterLink, ptr %41, i32 0, i32 13
  %43 = load i64, ptr %42, align 8
  %44 = call nsz double @av_q2d(i64 %43)
  %45 = fmul nsz double %40, %44
  br label %46

46:                                               ; preds = %38, %37
  %47 = phi nsz double [ 0x7FF8000000000000, %37 ], [ %45, %38 ]
  %48 = load ptr, ptr %8, align 8, !tbaa !74
  %49 = getelementptr inbounds nuw %struct.FFFilterContext, ptr %48, i32 0, i32 5
  %50 = load ptr, ptr %49, align 8, !tbaa !130
  %51 = getelementptr inbounds double, ptr %50, i64 0
  store double %47, ptr %51, align 8, !tbaa !238
  %52 = load ptr, ptr %4, align 8, !tbaa !26
  %53 = getelementptr inbounds nuw %struct.AVFilterLink, ptr %52, i32 0, i32 6
  %54 = load i32, ptr %53, align 8, !tbaa !107
  %55 = sitofp i32 %54 to double
  %56 = load ptr, ptr %8, align 8, !tbaa !74
  %57 = getelementptr inbounds nuw %struct.FFFilterContext, ptr %56, i32 0, i32 5
  %58 = load ptr, ptr %57, align 8, !tbaa !130
  %59 = getelementptr inbounds double, ptr %58, i64 2
  store double %55, ptr %59, align 8, !tbaa !238
  %60 = load ptr, ptr %4, align 8, !tbaa !26
  %61 = getelementptr inbounds nuw %struct.AVFilterLink, ptr %60, i32 0, i32 7
  %62 = load i32, ptr %61, align 4, !tbaa !108
  %63 = sitofp i32 %62 to double
  %64 = load ptr, ptr %8, align 8, !tbaa !74
  %65 = getelementptr inbounds nuw %struct.FFFilterContext, ptr %64, i32 0, i32 5
  %66 = load ptr, ptr %65, align 8, !tbaa !130
  %67 = getelementptr inbounds double, ptr %66, i64 3
  store double %63, ptr %67, align 8, !tbaa !238
  %68 = load ptr, ptr %8, align 8, !tbaa !74
  %69 = getelementptr inbounds nuw %struct.FFFilterContext, ptr %68, i32 0, i32 4
  %70 = load ptr, ptr %69, align 8, !tbaa !127
  %71 = load ptr, ptr %8, align 8, !tbaa !74
  %72 = getelementptr inbounds nuw %struct.FFFilterContext, ptr %71, i32 0, i32 5
  %73 = load ptr, ptr %72, align 8, !tbaa !130
  %74 = call nsz double @av_expr_eval(ptr noundef %70, ptr noundef %73, ptr noundef null)
  %75 = call nsz double @llvm.fabs.f64(double %74)
  %76 = fcmp nsz oge double %75, 5.000000e-01
  %77 = zext i1 %76 to i32
  store i32 %77, ptr %3, align 4
  store i32 1, ptr %10, align 4
  br label %78

78:                                               ; preds = %46, %25
  call void @llvm.lifetime.end.p0(i64 8, ptr %9) #11
  call void @llvm.lifetime.end.p0(i64 8, ptr %8) #11
  call void @llvm.lifetime.end.p0(i64 8, ptr %7) #11
  call void @llvm.lifetime.end.p0(i64 8, ptr %6) #11
  %79 = load i32, ptr %3, align 4
  ret i32 %79
}

; Function Attrs: nounwind uwtable
define internal void @update_link_current_pts(ptr noundef %0, i64 noundef %1) #0 {
  %3 = alloca ptr, align 8
  %4 = alloca i64, align 8
  %5 = alloca ptr, align 8
  %6 = alloca i32, align 4
  %7 = alloca %struct.AVRational, align 4
  store ptr %0, ptr %3, align 8, !tbaa !47
  store i64 %1, ptr %4, align 8, !tbaa !77
  call void @llvm.lifetime.start.p0(i64 8, ptr %5) #11
  %8 = load ptr, ptr %3, align 8, !tbaa !47
  %9 = getelementptr inbounds nuw %struct.FilterLinkInternal, ptr %8, i32 0, i32 0
  %10 = getelementptr inbounds nuw %struct.FilterLink, ptr %9, i32 0, i32 0
  store ptr %10, ptr %5, align 8, !tbaa !26
  %11 = load i64, ptr %4, align 8, !tbaa !77
  %12 = icmp eq i64 %11, -9223372036854775808
  br i1 %12, label %13, label %14

13:                                               ; preds = %2
  store i32 1, ptr %6, align 4
  br label %47

14:                                               ; preds = %2
  %15 = load i64, ptr %4, align 8, !tbaa !77
  %16 = load ptr, ptr %3, align 8, !tbaa !47
  %17 = getelementptr inbounds nuw %struct.FilterLinkInternal, ptr %16, i32 0, i32 0
  %18 = getelementptr inbounds nuw %struct.FilterLink, ptr %17, i32 0, i32 2
  store i64 %15, ptr %18, align 8, !tbaa !90
  %19 = load i64, ptr %4, align 8, !tbaa !77
  %20 = load ptr, ptr %5, align 8, !tbaa !26
  %21 = getelementptr inbounds nuw %struct.AVFilterLink, ptr %20, i32 0, i32 13
  %22 = getelementptr inbounds nuw %struct.AVRational, ptr %7, i32 0, i32 0
  store i32 1, ptr %22, align 4, !tbaa !101
  %23 = getelementptr inbounds nuw %struct.AVRational, ptr %7, i32 0, i32 1
  store i32 1000000, ptr %23, align 4, !tbaa !102
  %24 = load i64, ptr %21, align 8
  %25 = load i64, ptr %7, align 4
  %26 = call i64 @av_rescale_q(i64 noundef %19, i64 %24, i64 %25) #14
  %27 = load ptr, ptr %3, align 8, !tbaa !47
  %28 = getelementptr inbounds nuw %struct.FilterLinkInternal, ptr %27, i32 0, i32 0
  %29 = getelementptr inbounds nuw %struct.FilterLink, ptr %28, i32 0, i32 3
  store i64 %26, ptr %29, align 8, !tbaa !89
  %30 = load ptr, ptr %3, align 8, !tbaa !47
  %31 = getelementptr inbounds nuw %struct.FilterLinkInternal, ptr %30, i32 0, i32 0
  %32 = getelementptr inbounds nuw %struct.FilterLink, ptr %31, i32 0, i32 1
  %33 = load ptr, ptr %32, align 8, !tbaa !61
  %34 = icmp ne ptr %33, null
  br i1 %34, label %35, label %46

35:                                               ; preds = %14
  %36 = load ptr, ptr %3, align 8, !tbaa !47
  %37 = getelementptr inbounds nuw %struct.FilterLinkInternal, ptr %36, i32 0, i32 8
  %38 = load i32, ptr %37, align 8, !tbaa !202
  %39 = icmp sge i32 %38, 0
  br i1 %39, label %40, label %46

40:                                               ; preds = %35
  %41 = load ptr, ptr %3, align 8, !tbaa !47
  %42 = getelementptr inbounds nuw %struct.FilterLinkInternal, ptr %41, i32 0, i32 0
  %43 = getelementptr inbounds nuw %struct.FilterLink, ptr %42, i32 0, i32 1
  %44 = load ptr, ptr %43, align 8, !tbaa !61
  %45 = load ptr, ptr %3, align 8, !tbaa !47
  call void @ff_avfilter_graph_update_heap(ptr noundef %44, ptr noundef %45)
  br label %46

46:                                               ; preds = %40, %35, %14
  store i32 0, ptr %6, align 4
  br label %47

47:                                               ; preds = %46, %13
  call void @llvm.lifetime.end.p0(i64 8, ptr %5) #11
  %48 = load i32, ptr %6, align 4
  switch i32 %48, label %50 [
    i32 0, label %49
    i32 1, label %49
  ]

49:                                               ; preds = %47, %47
  ret void

50:                                               ; preds = %47
  unreachable
}

; Function Attrs: nounwind uwtable
define internal void @consume_update(ptr noundef %0, ptr noundef %1) #0 {
  %3 = alloca ptr, align 8
  %4 = alloca ptr, align 8
  %5 = alloca ptr, align 8
  store ptr %0, ptr %3, align 8, !tbaa !47
  store ptr %1, ptr %4, align 8, !tbaa !183
  call void @llvm.lifetime.start.p0(i64 8, ptr %5) #11
  %6 = load ptr, ptr %3, align 8, !tbaa !47
  %7 = getelementptr inbounds nuw %struct.FilterLinkInternal, ptr %6, i32 0, i32 0
  %8 = getelementptr inbounds nuw %struct.FilterLink, ptr %7, i32 0, i32 0
  store ptr %8, ptr %5, align 8, !tbaa !26
  %9 = load ptr, ptr %3, align 8, !tbaa !47
  %10 = load ptr, ptr %4, align 8, !tbaa !183
  %11 = getelementptr inbounds nuw %struct.AVFrame, ptr %10, i32 0, i32 9
  %12 = load i64, ptr %11, align 8, !tbaa !208
  call void @update_link_current_pts(ptr noundef %9, i64 noundef %12)
  %13 = load ptr, ptr %5, align 8, !tbaa !26
  %14 = load ptr, ptr %4, align 8, !tbaa !183
  %15 = call i32 @ff_inlink_process_commands(ptr noundef %13, ptr noundef %14)
  %16 = load ptr, ptr %5, align 8, !tbaa !26
  %17 = load ptr, ptr %5, align 8, !tbaa !26
  %18 = getelementptr inbounds nuw %struct.AVFilterLink, ptr %17, i32 0, i32 2
  %19 = load ptr, ptr %18, align 8, !tbaa !57
  %20 = getelementptr inbounds nuw %struct.AVFilterContext, ptr %19, i32 0, i32 4
  %21 = load ptr, ptr %20, align 8, !tbaa !39
  %22 = getelementptr inbounds ptr, ptr %21, i64 0
  %23 = load ptr, ptr %22, align 8, !tbaa !26
  %24 = icmp eq ptr %16, %23
  br i1 %24, label %25, label %36

25:                                               ; preds = %2
  %26 = load ptr, ptr %5, align 8, !tbaa !26
  %27 = load ptr, ptr %4, align 8, !tbaa !183
  %28 = call i32 @evaluate_timeline_at_frame(ptr noundef %26, ptr noundef %27)
  %29 = icmp ne i32 %28, 0
  %30 = xor i1 %29, true
  %31 = zext i1 %30 to i32
  %32 = load ptr, ptr %5, align 8, !tbaa !26
  %33 = getelementptr inbounds nuw %struct.AVFilterLink, ptr %32, i32 0, i32 2
  %34 = load ptr, ptr %33, align 8, !tbaa !57
  %35 = getelementptr inbounds nuw %struct.AVFilterContext, ptr %34, i32 0, i32 17
  store i32 %31, ptr %35, align 8, !tbaa !209
  br label %36

36:                                               ; preds = %25, %2
  %37 = load ptr, ptr %3, align 8, !tbaa !47
  %38 = getelementptr inbounds nuw %struct.FilterLinkInternal, ptr %37, i32 0, i32 0
  %39 = getelementptr inbounds nuw %struct.FilterLink, ptr %38, i32 0, i32 7
  %40 = load i64, ptr %39, align 8, !tbaa !210
  %41 = add nsw i64 %40, 1
  store i64 %41, ptr %39, align 8, !tbaa !210
  %42 = load ptr, ptr %4, align 8, !tbaa !183
  %43 = getelementptr inbounds nuw %struct.AVFrame, ptr %42, i32 0, i32 5
  %44 = load i32, ptr %43, align 8, !tbaa !189
  %45 = sext i32 %44 to i64
  %46 = load ptr, ptr %3, align 8, !tbaa !47
  %47 = getelementptr inbounds nuw %struct.FilterLinkInternal, ptr %46, i32 0, i32 0
  %48 = getelementptr inbounds nuw %struct.FilterLink, ptr %47, i32 0, i32 9
  %49 = load i64, ptr %48, align 8, !tbaa !211
  %50 = add nsw i64 %49, %45
  store i64 %50, ptr %48, align 8, !tbaa !211
  call void @llvm.lifetime.end.p0(i64 8, ptr %5) #11
  ret void
}