; Function Attrs: nounwind uwtable
define internal fastcc void @consume_update(ptr noundef %0, ptr noundef readonly captures(none) %1) unnamed_addr #0 {
  %3 = getelementptr inbounds nuw i8, ptr %1, i64 136
  %4 = load i64, ptr %3, align 8, !tbaa !172
  %5 = icmp eq i64 %4, -9223372036854775808
  br i1 %5, label %update_link_current_pts.exit, label %6

6:                                                ; preds = %2
  %7 = getelementptr inbounds nuw i8, ptr %0, i64 208
  store i64 %4, ptr %7, align 8, !tbaa !75
  %8 = getelementptr inbounds nuw i8, ptr %0, i64 96
  %9 = load i64, ptr %8, align 8
  %10 = tail call i64 @av_rescale_q(i64 noundef %4, i64 %9, i64 4294967296000001) #17
  %11 = getelementptr inbounds nuw i8, ptr %0, i64 216
  store i64 %10, ptr %11, align 8, !tbaa !74
  %12 = getelementptr inbounds nuw i8, ptr %0, i64 200
  %13 = load ptr, ptr %12, align 8, !tbaa !51
  %.not.i = icmp eq ptr %13, null
  br i1 %.not.i, label %update_link_current_pts.exit, label %14

14:                                               ; preds = %6
  %15 = getelementptr inbounds nuw i8, ptr %0, i64 392
  %16 = load i32, ptr %15, align 8, !tbaa !101
  %17 = icmp sgt i32 %16, -1
  br i1 %17, label %18, label %update_link_current_pts.exit

18:                                               ; preds = %14
  tail call void @ff_avfilter_graph_update_heap(ptr noundef nonnull %13, ptr noundef nonnull %0) #15
  br label %update_link_current_pts.exit

update_link_current_pts.exit:                     ; preds = %2, %6, %14, %18
  %19 = tail call i32 @ff_inlink_process_commands(ptr noundef %0, ptr noundef nonnull %1)
  %20 = getelementptr inbounds nuw i8, ptr %0, i64 16
  %21 = load ptr, ptr %20, align 8, !tbaa !47
  %22 = getelementptr inbounds nuw i8, ptr %21, i64 32
  %23 = load ptr, ptr %22, align 8, !tbaa !30
  %24 = load ptr, ptr %23, align 8, !tbaa !17
  %25 = icmp eq ptr %0, %24
  br i1 %25, label %26, label %63

26:                                               ; preds = %update_link_current_pts.exit
  %.val = load i64, ptr %3, align 8, !tbaa !172
  %27 = getelementptr inbounds nuw i8, ptr %21, i64 104
  %28 = load ptr, ptr %27, align 8, !tbaa !108
  %.not.i13 = icmp eq ptr %28, null
  br i1 %.not.i13, label %evaluate_timeline_at_frame.exit, label %29

29:                                               ; preds = %26
  %30 = getelementptr inbounds nuw i8, ptr %0, i64 240
  %31 = load i64, ptr %30, align 8, !tbaa !174
  %32 = sitofp i64 %31 to double
  %33 = getelementptr inbounds nuw i8, ptr %21, i64 176
  %34 = load ptr, ptr %33, align 8, !tbaa !106
  %35 = getelementptr inbounds nuw i8, ptr %34, i64 8
  store double %32, ptr %35, align 8, !tbaa !175
  %36 = icmp eq i64 %.val, -9223372036854775808
  br i1 %36, label %45, label %37

37:                                               ; preds = %29
  %38 = sitofp i64 %.val to double
  %39 = getelementptr inbounds nuw i8, ptr %0, i64 96
  %40 = load i64, ptr %39, align 8
  %.sroa.0.0.extract.trunc.i.i = trunc i64 %40 to i32
  %.sroa.2.0.extract.shift.i.i = lshr i64 %40, 32
  %.sroa.2.0.extract.trunc.i.i = trunc nuw i64 %.sroa.2.0.extract.shift.i.i to i32
  %41 = sitofp i32 %.sroa.0.0.extract.trunc.i.i to double
  %42 = sitofp i32 %.sroa.2.0.extract.trunc.i.i to double
  %43 = fdiv nsz double %41, %42
  %44 = fmul nsz double %43, %38
  br label %45

45:                                               ; preds = %37, %29
  %46 = phi nsz double [ %44, %37 ], [ 0x7FF8000000000000, %29 ]
  store double %46, ptr %34, align 8, !tbaa !175
  %47 = getelementptr inbounds nuw i8, ptr %0, i64 40
  %48 = load i32, ptr %47, align 8, !tbaa !89
  %49 = sitofp i32 %48 to double
  %50 = getelementptr inbounds nuw i8, ptr %34, i64 16
  store double %49, ptr %50, align 8, !tbaa !175
  %51 = getelementptr inbounds nuw i8, ptr %0, i64 44
  %52 = load i32, ptr %51, align 4, !tbaa !90
  %53 = sitofp i32 %52 to double
  %54 = getelementptr inbounds nuw i8, ptr %34, i64 24
  store double %53, ptr %54, align 8, !tbaa !175
  %55 = getelementptr inbounds nuw i8, ptr %21, i64 168
  %56 = load ptr, ptr %55, align 8, !tbaa !104
  %57 = tail call nsz double @av_expr_eval(ptr noundef %56, ptr noundef nonnull %34, ptr noundef null) #15
  %58 = tail call nsz double @llvm.fabs.f64(double %57)
  %59 = fcmp nsz ult double %58, 5.000000e-01
  %60 = zext i1 %59 to i32
  %.pre = load ptr, ptr %20, align 8, !tbaa !47
  br label %evaluate_timeline_at_frame.exit

evaluate_timeline_at_frame.exit:                  ; preds = %26, %45
  %61 = phi ptr [ %.pre, %45 ], [ %21, %26 ]
  %.0.i = phi i32 [ %60, %45 ], [ 0, %26 ]
  %62 = getelementptr inbounds nuw i8, ptr %61, i64 128
  store i32 %.0.i, ptr %62, align 8, !tbaa !173
  br label %63

63:                                               ; preds = %evaluate_timeline_at_frame.exit, %update_link_current_pts.exit
  %64 = getelementptr inbounds nuw i8, ptr %0, i64 240
  %65 = load i64, ptr %64, align 8, !tbaa !170
  %66 = add nsw i64 %65, 1
  store i64 %66, ptr %64, align 8, !tbaa !170
  %67 = getelementptr inbounds nuw i8, ptr %1, i64 112
  %68 = load i32, ptr %67, align 8, !tbaa !152
  %69 = sext i32 %68 to i64
  %70 = getelementptr inbounds nuw i8, ptr %0, i64 256
  %71 = load i64, ptr %70, align 8, !tbaa !184
  %72 = add nsw i64 %71, %69
  store i64 %72, ptr %70, align 8, !tbaa !184
  ret void
}